target datalayout = "e-m:e-p270:32:32-p271:32:32-p272:64:64-i64:64-i128:128-f80:128-n8:16:32:64-S128"
target triple = "x86_64-pc-linux-gnu"

%class.dtNavMeshQuery = type { ptr, %"struct.dtNavMeshQuery::dtQueryData", ptr, ptr, ptr }
%"struct.dtNavMeshQuery::dtQueryData" = type { i32, ptr, float, i32, i32, [3 x float], [3 x float], ptr, i32, float }

; Function Attrs: mustprogress nounwind uwtable
define void @_ZN14dtNavMeshQueryD2Ev(ptr noundef nonnull align 8 dereferenceable(104) %0) unnamed_addr #0 align 2 personality ptr @__gxx_personality_v0 {
  %2 = alloca ptr, align 8
  store ptr %0, ptr %2, align 8
  %3 = load ptr, ptr %2, align 8
  %4 = getelementptr inbounds %class.dtNavMeshQuery, ptr %3, i32 0, i32 2
  %5 = load ptr, ptr %4, align 8
  %6 = icmp ne ptr %5, null
  br i1 %6, label %7, label %10

7:                                                ; preds = %1
  %8 = getelementptr inbounds %class.dtNavMeshQuery, ptr %3, i32 0, i32 2
  %9 = load ptr, ptr %8, align 8
  call void @_ZN10dtNodePoolD1Ev(ptr noundef nonnull align 8 dereferenceable(36) %9) #9
  br label %10

10:                                               ; preds = %7, %1
  %11 = getelementptr inbounds %class.dtNavMeshQuery, ptr %3, i32 0, i32 3
  %12 = load ptr, ptr %11, align 8
  %13 = icmp ne ptr %12, null
  br i1 %13, label %14, label %17

14:                                               ; preds = %10
  %15 = getelementptr inbounds %class.dtNavMeshQuery, ptr %3, i32 0, i32 3
  %16 = load ptr, ptr %15, align 8
  call void @_ZN10dtNodePoolD1Ev(ptr noundef nonnull align 8 dereferenceable(36) %16) #9
  br label %17

17:                                               ; preds = %14, %10
  %18 = getelementptr inbounds %class.dtNavMeshQuery, ptr %3, i32 0, i32 4
  %19 = load ptr, ptr %18, align 8
  %20 = icmp ne ptr %19, null
  br i1 %20, label %21, label %24

21:                                               ; preds = %17
  %22 = getelementptr inbounds %class.dtNavMeshQuery, ptr %3, i32 0, i32 4
  %23 = load ptr, ptr %22, align 8
  call void @_ZN11dtNodeQueueD1Ev(ptr noundef nonnull align 8 dereferenceable(16) %23) #9
  br label %24

24:                                               ; preds = %21, %17
  %25 = getelementptr inbounds %class.dtNavMeshQuery, ptr %3, i32 0, i32 2
  %26 = load ptr, ptr %25, align 8
  invoke void @_Z6dtFreePv(ptr noundef %26)
          to label %27 unwind label %34

27:                                               ; preds = %24
  %28 = getelementptr inbounds %class.dtNavMeshQuery, ptr %3, i32 0, i32 3
  %29 = load ptr, ptr %28, align 8
  invoke void @_Z6dtFreePv(ptr noundef %29)
          to label %30 unwind label %34

30:                                               ; preds = %27
  %31 = getelementptr inbounds %class.dtNavMeshQuery, ptr %3, i32 0, i32 4
  %32 = load ptr, ptr %31, align 8
  invoke void @_Z6dtFreePv(ptr noundef %32)
          to label %33 unwind label %34

33:                                               ; preds = %30
  ret void

34:                                               ; preds = %30, %27, %24
  %35 = landingpad { ptr, i32 }
          catch ptr null
  %36 = extractvalue { ptr, i32 } %35, 0
  call void @__clang_call_terminate(ptr %36) #11
  unreachable
}