; Function Attrs: mustprogress nounwind uwtable
define void @_ZN14dtNavMeshQueryD2Ev(ptr nocapture noundef nonnull readonly align 8 dereferenceable(104) %0) unnamed_addr #8 align 2 personality ptr @__gxx_personality_v0 {
  %2 = getelementptr inbounds i8, ptr %0, i64 80
  %3 = load ptr, ptr %2, align 8
  %.not = icmp eq ptr %3, null
  br i1 %.not, label %5, label %4

4:                                                ; preds = %1
  tail call void @_ZN10dtNodePoolD1Ev(ptr noundef nonnull align 8 dereferenceable(36) %3) #20
  br label %5

5:                                                ; preds = %4, %1
  %6 = getelementptr inbounds i8, ptr %0, i64 88
  %7 = load ptr, ptr %6, align 8
  %.not3 = icmp eq ptr %7, null
  br i1 %.not3, label %9, label %8

8:                                                ; preds = %5
  tail call void @_ZN10dtNodePoolD1Ev(ptr noundef nonnull align 8 dereferenceable(36) %7) #20
  br label %9

9:                                                ; preds = %8, %5
  %10 = getelementptr inbounds i8, ptr %0, i64 96
  %11 = load ptr, ptr %10, align 8
  %.not4 = icmp eq ptr %11, null
  br i1 %.not4, label %13, label %12

12:                                               ; preds = %9
  tail call void @_ZN11dtNodeQueueD1Ev(ptr noundef nonnull align 8 dereferenceable(16) %11) #20
  br label %13

13:                                               ; preds = %12, %9
  %14 = load ptr, ptr %2, align 8
  invoke void @_Z6dtFreePv(ptr noundef %14)
          to label %15 unwind label %20

15:                                               ; preds = %13
  %16 = load ptr, ptr %6, align 8
  invoke void @_Z6dtFreePv(ptr noundef %16)
          to label %17 unwind label %20

17:                                               ; preds = %15
  %18 = load ptr, ptr %10, align 8
  invoke void @_Z6dtFreePv(ptr noundef %18)
          to label %19 unwind label %20

19:                                               ; preds = %17
  ret void

20:                                               ; preds = %17, %15, %13
  %21 = landingpad { ptr, i32 }
          catch ptr null
  %22 = extractvalue { ptr, i32 } %21, 0
  tail call void @__clang_call_terminate(ptr %22) #21
  unreachable
}